target datalayout = "e-m:e-p270:32:32-p271:32:32-p272:64:64-i64:64-i128:128-f80:128-n8:16:32:64-S128"
target triple = "x86_64-pc-linux-gnu"

%struct.ZSTD_inBuffer_s = type { ptr, i64, i64 }
%"class.rocksdb::ZSTDStreamingUncompress" = type { %"class.rocksdb::StreamingUncompress", ptr, %struct.ZSTD_inBuffer_s }
%"class.rocksdb::StreamingUncompress" = type { ptr, i8, i32, i64 }
%struct.ZSTD_outBuffer_s = type { ptr, i64, i64 }

; Function Attrs: mustprogress uwtable
define void @_ZN7rocksdb23ZSTDStreamingUncompress5ResetEv(ptr noundef nonnull align 8 dereferenceable(56) %0) unnamed_addr #0 align 2 {
  %2 = alloca ptr, align 8
  %3 = alloca %struct.ZSTD_inBuffer_s, align 8
  store ptr %0, ptr %2, align 8, !tbaa !28
  %4 = load ptr, ptr %2, align 8
  %5 = getelementptr inbounds nuw %"class.rocksdb::ZSTDStreamingUncompress", ptr %4, i32 0, i32 1
  %6 = load ptr, ptr %5, align 8, !tbaa !30
  %7 = call i64 @ZSTD_DCtx_reset(ptr noundef %6, i32 noundef 1)
  call void @llvm.lifetime.start.p0(i64 24, ptr %3) #13
  call void @llvm.memset.p0.i64(ptr align 8 %3, i8 0, i64 24, i1 false)
  %8 = getelementptr inbounds nuw %"class.rocksdb::ZSTDStreamingUncompress", ptr %4, i32 0, i32 2
  call void @llvm.memcpy.p0.p0.i64(ptr align 8 %8, ptr align 8 %3, i64 24, i1 false), !tbaa.struct !26
  call void @llvm.lifetime.end.p0(i64 24, ptr %3) #13
  ret void
}

; Function Attrs: mustprogress uwtable
define noundef i32 @_ZN7rocksdb23ZSTDStreamingUncompress10UncompressEPKcmPcPm(ptr noundef nonnull align 8 dereferenceable(56) %0, ptr noundef %1, i64 noundef %2, ptr noundef %3, ptr noundef %4) unnamed_addr #0 align 2 {
  %6 = alloca i32, align 4
  %7 = alloca ptr, align 8
  %8 = alloca ptr, align 8
  %9 = alloca i64, align 8
  %10 = alloca ptr, align 8
  %11 = alloca ptr, align 8
  %12 = alloca %struct.ZSTD_inBuffer_s, align 8
  %13 = alloca %struct.ZSTD_outBuffer_s, align 8
  %14 = alloca i64, align 8
  %15 = alloca i32, align 4
  store ptr %0, ptr %7, align 8, !tbaa !28
  store ptr %1, ptr %8, align 8, !tbaa !34
  store i64 %2, ptr %9, align 8, !tbaa !13
  store ptr %3, ptr %10, align 8, !tbaa !34
  store ptr %4, ptr %11, align 8, !tbaa !36
  %16 = load ptr, ptr %7, align 8
  %17 = load ptr, ptr %11, align 8, !tbaa !36
  store i64 0, ptr %17, align 8, !tbaa !13
  %18 = load i64, ptr %9, align 8, !tbaa !13
  %19 = icmp eq i64 %18, 0
  br i1 %19, label %20, label %21

20:                                               ; preds = %5
  store i32 0, ptr %6, align 4
  br label %59

21:                                               ; preds = %5
  %22 = load ptr, ptr %8, align 8, !tbaa !34
  %23 = icmp ne ptr %22, null
  br i1 %23, label %24, label %31

24:                                               ; preds = %21
  call void @llvm.lifetime.start.p0(i64 24, ptr %12) #13
  %25 = getelementptr inbounds nuw %struct.ZSTD_inBuffer_s, ptr %12, i32 0, i32 0
  %26 = load ptr, ptr %8, align 8, !tbaa !34
  store ptr %26, ptr %25, align 8, !tbaa !39
  %27 = getelementptr inbounds nuw %struct.ZSTD_inBuffer_s, ptr %12, i32 0, i32 1
  %28 = load i64, ptr %9, align 8, !tbaa !13
  store i64 %28, ptr %27, align 8, !tbaa !40
  %29 = getelementptr inbounds nuw %struct.ZSTD_inBuffer_s, ptr %12, i32 0, i32 2
  store i64 0, ptr %29, align 8, !tbaa !41
  %30 = getelementptr inbounds nuw %"class.rocksdb::ZSTDStreamingUncompress", ptr %16, i32 0, i32 2
  call void @llvm.memcpy.p0.p0.i64(ptr align 8 %30, ptr align 8 %12, i64 24, i1 false), !tbaa.struct !26
  call void @llvm.lifetime.end.p0(i64 24, ptr %12) #13
  br label %31

31:                                               ; preds = %24, %21
  call void @llvm.lifetime.start.p0(i64 24, ptr %13) #13
  %32 = getelementptr inbounds nuw %struct.ZSTD_outBuffer_s, ptr %13, i32 0, i32 0
  %33 = load ptr, ptr %10, align 8, !tbaa !34
  store ptr %33, ptr %32, align 8, !tbaa !42
  %34 = getelementptr inbounds nuw %struct.ZSTD_outBuffer_s, ptr %13, i32 0, i32 1
  %35 = getelementptr inbounds nuw %"class.rocksdb::StreamingUncompress", ptr %16, i32 0, i32 3
  %36 = load i64, ptr %35, align 8, !tbaa !47
  store i64 %36, ptr %34, align 8, !tbaa !45
  %37 = getelementptr inbounds nuw %struct.ZSTD_outBuffer_s, ptr %13, i32 0, i32 2
  store i64 0, ptr %37, align 8, !tbaa !46
  call void @llvm.lifetime.start.p0(i64 8, ptr %14) #13
  %38 = getelementptr inbounds nuw %"class.rocksdb::ZSTDStreamingUncompress", ptr %16, i32 0, i32 1
  %39 = load ptr, ptr %38, align 8, !tbaa !30
  %40 = getelementptr inbounds nuw %"class.rocksdb::ZSTDStreamingUncompress", ptr %16, i32 0, i32 2
  %41 = call i64 @ZSTD_decompressStream(ptr noundef %39, ptr noundef %13, ptr noundef %40)
  store i64 %41, ptr %14, align 8, !tbaa !13
  %42 = load i64, ptr %14, align 8, !tbaa !13
  %43 = call i32 @ZSTD_isError(i64 noundef %42)
  %44 = icmp ne i32 %43, 0
  br i1 %44, label %45, label %46

45:                                               ; preds = %31
  call void @_ZN7rocksdb23ZSTDStreamingUncompress5ResetEv(ptr noundef nonnull align 8 dereferenceable(56) %16)
  store i32 -1, ptr %6, align 4
  store i32 1, ptr %15, align 4
  br label %58

46:                                               ; preds = %31
  %47 = getelementptr inbounds nuw %struct.ZSTD_outBuffer_s, ptr %13, i32 0, i32 2
  %48 = load i64, ptr %47, align 8, !tbaa !46
  %49 = load ptr, ptr %11, align 8, !tbaa !36
  store i64 %48, ptr %49, align 8, !tbaa !13
  %50 = getelementptr inbounds nuw %"class.rocksdb::ZSTDStreamingUncompress", ptr %16, i32 0, i32 2
  %51 = getelementptr inbounds nuw %struct.ZSTD_inBuffer_s, ptr %50, i32 0, i32 1
  %52 = load i64, ptr %51, align 8, !tbaa !48
  %53 = getelementptr inbounds nuw %"class.rocksdb::ZSTDStreamingUncompress", ptr %16, i32 0, i32 2
  %54 = getelementptr inbounds nuw %struct.ZSTD_inBuffer_s, ptr %53, i32 0, i32 2
  %55 = load i64, ptr %54, align 8, !tbaa !49
  %56 = sub i64 %52, %55
  %57 = trunc i64 %56 to i32
  store i32 %57, ptr %6, align 4
  store i32 1, ptr %15, align 4
  br label %58

58:                                               ; preds = %46, %45
  call void @llvm.lifetime.end.p0(i64 8, ptr %14) #13
  call void @llvm.lifetime.end.p0(i64 24, ptr %13) #13
  br label %59

59:                                               ; preds = %58, %20
  %60 = load i32, ptr %6, align 4
  ret i32 %60
}