; Function Attrs: mustprogress uwtable
define noundef i32 @_ZN7rocksdb23ZSTDStreamingUncompress10UncompressEPKcmPcPm(ptr noundef nonnull align 8 dereferenceable(56) %0, ptr noundef %1, i64 noundef %2, ptr noundef %3, ptr noundef writeonly captures(none) initializes((0, 8)) %4) unnamed_addr #0 align 2 {
  %6 = alloca %struct.ZSTD_outBuffer_s, align 8
  store i64 0, ptr %4, align 8, !tbaa !16
  %7 = icmp eq i64 %2, 0
  br i1 %7, label %33, label %8

8:                                                ; preds = %5
  %.not = icmp eq ptr %1, null
  br i1 %.not, label %11, label %9

9:                                                ; preds = %8
  %10 = getelementptr inbounds nuw i8, ptr %0, i64 32
  store ptr %1, ptr %10, align 8, !tbaa !34
  %.sroa.4.0..sroa_idx = getelementptr inbounds nuw i8, ptr %0, i64 40
  store i64 %2, ptr %.sroa.4.0..sroa_idx, align 8, !tbaa !16
  %.sroa.5.0..sroa_idx = getelementptr inbounds nuw i8, ptr %0, i64 48
  store i64 0, ptr %.sroa.5.0..sroa_idx, align 8, !tbaa !16
  br label %11

11:                                               ; preds = %9, %8
  call void @llvm.lifetime.start.p0(i64 24, ptr nonnull %6) #12
  store ptr %3, ptr %6, align 8, !tbaa !35
  %12 = getelementptr inbounds nuw i8, ptr %6, i64 8
  %13 = getelementptr inbounds nuw i8, ptr %0, i64 16
  %14 = load i64, ptr %13, align 8, !tbaa !29
  store i64 %14, ptr %12, align 8, !tbaa !37
  %15 = getelementptr inbounds nuw i8, ptr %6, i64 16
  store i64 0, ptr %15, align 8, !tbaa !38
  %16 = getelementptr inbounds nuw i8, ptr %0, i64 24
  %17 = load ptr, ptr %16, align 8, !tbaa !30
  %18 = getelementptr inbounds nuw i8, ptr %0, i64 32
  %19 = call i64 @ZSTD_decompressStream(ptr noundef %17, ptr noundef nonnull %6, ptr noundef nonnull %18)
  %20 = call i32 @ZSTD_isError(i64 noundef %19)
  %.not11 = icmp eq i32 %20, 0
  br i1 %.not11, label %24, label %21

21:                                               ; preds = %11
  %22 = load ptr, ptr %16, align 8, !tbaa !30
  %23 = call i64 @ZSTD_DCtx_reset(ptr noundef %22, i32 noundef 1)
  call void @llvm.memset.p0.i64(ptr noundef nonnull align 8 dereferenceable(24) %18, i8 0, i64 24, i1 false)
  br label %32

24:                                               ; preds = %11
  %25 = load i64, ptr %15, align 8, !tbaa !38
  store i64 %25, ptr %4, align 8, !tbaa !16
  %26 = getelementptr inbounds nuw i8, ptr %0, i64 40
  %27 = load i64, ptr %26, align 8, !tbaa !39
  %28 = getelementptr inbounds nuw i8, ptr %0, i64 48
  %29 = load i64, ptr %28, align 8, !tbaa !40
  %30 = sub i64 %27, %29
  %31 = trunc i64 %30 to i32
  br label %32

32:                                               ; preds = %24, %21
  %.1 = phi i32 [ -1, %21 ], [ %31, %24 ]
  call void @llvm.lifetime.end.p0(i64 24, ptr nonnull %6) #12
  br label %33

33:                                               ; preds = %5, %32
  %.0 = phi i32 [ %.1, %32 ], [ 0, %5 ]
  ret i32 %.0
}